; Function Attrs: nounwind uwtable
define hidden void @Wayland_QuitKeyboard(ptr noundef readonly captures(none) %0) local_unnamed_addr #0 {
  %2 = getelementptr inbounds nuw i8, ptr %0, i64 1656
  %3 = load ptr, ptr %2, align 8
  %4 = getelementptr inbounds nuw i8, ptr %3, i64 144
  %5 = load ptr, ptr %4, align 8
  %.not = icmp eq ptr %5, null
  br i1 %.not, label %6, label %7

6:                                                ; preds = %1
  tail call void @SDL_IME_Quit() #5
  br label %7

7:                                                ; preds = %6, %1
  ret void
}